target datalayout = "e-m:e-p270:32:32-p271:32:32-p272:64:64-i64:64-i128:128-f80:128-n8:16:32:64-S128"
target triple = "x86_64-pc-linux-gnu"

@.str.113 = private unnamed_addr constant [49 x i8] c"User was holding shared buffer pin for too long.\00", align 1
@.str.114 = private unnamed_addr constant [47 x i8] c"User was holding a relation lock for too long.\00", align 1
@.str.115 = private unnamed_addr constant [67 x i8] c"User was or might have been using tablespace that must be dropped.\00", align 1
@.str.116 = private unnamed_addr constant [71 x i8] c"User query might have needed to see row versions that must be removed.\00", align 1
@.str.117 = private unnamed_addr constant [68 x i8] c"User was using a logical replication slot that must be invalidated.\00", align 1
@.str.118 = private unnamed_addr constant [55 x i8] c"User transaction caused buffer deadlock with recovery.\00", align 1
@.str.119 = private unnamed_addr constant [55 x i8] c"User was connected to a database that must be dropped.\00", align 1

; Function Attrs: nounwind uwtable
define internal i32 @errdetail_recovery_conflict(i32 noundef %0) #0 {
  %2 = alloca i32, align 4
  store i32 %0, ptr %2, align 4
  %3 = load i32, ptr %2, align 4
  switch i32 %3, label %18 [
    i32 12, label %4
    i32 9, label %6
    i32 8, label %8
    i32 10, label %10
    i32 11, label %12
    i32 13, label %14
    i32 7, label %16
  ]

4:                                                ; preds = %1
  %5 = call i32 (ptr, ...) @errdetail(ptr noundef @.str.113)
  br label %19

6:                                                ; preds = %1
  %7 = call i32 (ptr, ...) @errdetail(ptr noundef @.str.114)
  br label %19

8:                                                ; preds = %1
  %9 = call i32 (ptr, ...) @errdetail(ptr noundef @.str.115)
  br label %19

10:                                               ; preds = %1
  %11 = call i32 (ptr, ...) @errdetail(ptr noundef @.str.116)
  br label %19

12:                                               ; preds = %1
  %13 = call i32 (ptr, ...) @errdetail(ptr noundef @.str.117)
  br label %19

14:                                               ; preds = %1
  %15 = call i32 (ptr, ...) @errdetail(ptr noundef @.str.118)
  br label %19

16:                                               ; preds = %1
  %17 = call i32 (ptr, ...) @errdetail(ptr noundef @.str.119)
  br label %19

18:                                               ; preds = %1
  br label %19

19:                                               ; preds = %18, %16, %14, %12, %10, %8, %6, %4
  ret i32 0
}