; Function Attrs: nounwind uwtable
define internal fastcc void @errdetail_recovery_conflict(i32 noundef range(i32 0, 14) %0) unnamed_addr #0 {
  %switch.tableidx = add nsw i32 %0, -7
  %2 = icmp ult i32 %switch.tableidx, 7
  br i1 %2, label %switch.lookup, label %5

switch.lookup:                                    ; preds = %1
  %3 = zext nneg i32 %switch.tableidx to i64
  %switch.gep = getelementptr inbounds nuw [7 x ptr], ptr @switch.table.errdetail_recovery_conflict, i64 0, i64 %3
  %switch.load = load ptr, ptr %switch.gep, align 8
  %4 = tail call i32 (ptr, ...) @errdetail(ptr noundef nonnull %switch.load) #22
  br label %5

5:                                                ; preds = %1, %switch.lookup
  ret void
}